target datalayout = "e-m:e-p270:32:32-p271:32:32-p272:64:64-i64:64-i128:128-f80:128-n8:16:32:64-S128"
target triple = "x86_64-pc-linux-gnu"

%struct.magic_set = type { [2 x ptr], %struct.cont, %struct.out, i32, i32, i32, i32, i32, ptr, i64, i32, %struct.anon, %union.VALUETYPE, i16, i16, i16, i16, i16, i16, i64, i64, i64 }
%struct.cont = type { i64, ptr }
%struct.out = type { ptr, i64, ptr }
%struct.anon = type { ptr, i64, i64, i64 }
%union.VALUETYPE = type { [2 x i64], [112 x i8] }

@.str.8 = private unnamed_addr constant [26 x i8] c"cannot allocate %zu bytes\00", align 1

; Function Attrs: nounwind uwtable
define hidden void @file_oomem(ptr noundef %0, i64 noundef %1) #0 {
  %3 = alloca ptr, align 8
  %4 = alloca i64, align 8
  store ptr %0, ptr %3, align 8
  store i64 %1, ptr %4, align 8
  %5 = load ptr, ptr %3, align 8
  %6 = call ptr @__errno_location() #12
  %7 = load i32, ptr %6, align 4
  %8 = load i64, ptr %4, align 8
  call void (ptr, i32, ptr, ...) @file_error(ptr noundef %5, i32 noundef %7, ptr noundef @.str.8, i64 noundef %8)
  ret void
}

; Function Attrs: nounwind uwtable
define hidden ptr @file_getbuffer(ptr noundef %0) #0 {
  %2 = alloca ptr, align 8
  %3 = alloca ptr, align 8
  %4 = alloca ptr, align 8
  %5 = alloca ptr, align 8
  %6 = alloca ptr, align 8
  %7 = alloca i64, align 8
  %8 = alloca i64, align 8
  store ptr %0, ptr %3, align 8
  %9 = load ptr, ptr %3, align 8
  %10 = getelementptr inbounds %struct.magic_set, ptr %9, i32 0, i32 7
  %11 = load i32, ptr %10, align 8
  %12 = and i32 %11, 1
  %13 = icmp ne i32 %12, 0
  br i1 %13, label %14, label %15

14:                                               ; preds = %1
  store ptr null, ptr %2, align 8
  br label %132

15:                                               ; preds = %1
  %16 = load ptr, ptr %3, align 8
  %17 = getelementptr inbounds %struct.magic_set, ptr %16, i32 0, i32 6
  %18 = load i32, ptr %17, align 4
  %19 = and i32 %18, 256
  %20 = icmp ne i32 %19, 0
  br i1 %20, label %21, label %26

21:                                               ; preds = %15
  %22 = load ptr, ptr %3, align 8
  %23 = getelementptr inbounds %struct.magic_set, ptr %22, i32 0, i32 2
  %24 = getelementptr inbounds %struct.out, ptr %23, i32 0, i32 0
  %25 = load ptr, ptr %24, align 8
  store ptr %25, ptr %2, align 8
  br label %132

26:                                               ; preds = %15
  %27 = load ptr, ptr %3, align 8
  %28 = getelementptr inbounds %struct.magic_set, ptr %27, i32 0, i32 2
  %29 = getelementptr inbounds %struct.out, ptr %28, i32 0, i32 0
  %30 = load ptr, ptr %29, align 8
  %31 = icmp eq ptr %30, null
  br i1 %31, label %32, label %33

32:                                               ; preds = %26
  store ptr null, ptr %2, align 8
  br label %132

33:                                               ; preds = %26
  %34 = load ptr, ptr %3, align 8
  %35 = getelementptr inbounds %struct.magic_set, ptr %34, i32 0, i32 2
  %36 = getelementptr inbounds %struct.out, ptr %35, i32 0, i32 0
  %37 = load ptr, ptr %36, align 8
  %38 = call i64 @strlen(ptr noundef %37) #11
  store i64 %38, ptr %8, align 8
  %39 = load i64, ptr %8, align 8
  %40 = icmp ugt i64 %39, 4611686018427387903
  br i1 %40, label %41, label %44

41:                                               ; preds = %33
  %42 = load ptr, ptr %3, align 8
  %43 = load i64, ptr %8, align 8
  call void @file_oomem(ptr noundef %42, i64 noundef %43)
  store ptr null, ptr %2, align 8
  br label %132

44:                                               ; preds = %33
  %45 = load i64, ptr %8, align 8
  %46 = mul i64 %45, 4
  %47 = add i64 %46, 1
  store i64 %47, ptr %7, align 8
  %48 = load ptr, ptr %3, align 8
  %49 = getelementptr inbounds %struct.magic_set, ptr %48, i32 0, i32 2
  %50 = getelementptr inbounds %struct.out, ptr %49, i32 0, i32 2
  %51 = load ptr, ptr %50, align 8
  %52 = load i64, ptr %7, align 8
  %53 = call ptr @_erealloc(ptr noundef %51, i64 noundef %52) #14
  store ptr %53, ptr %4, align 8
  %54 = icmp eq ptr %53, null
  br i1 %54, label %55, label %58

55:                                               ; preds = %44
  %56 = load ptr, ptr %3, align 8
  %57 = load i64, ptr %7, align 8
  call void @file_oomem(ptr noundef %56, i64 noundef %57)
  store ptr null, ptr %2, align 8
  br label %132

58:                                               ; preds = %44
  %59 = load ptr, ptr %4, align 8
  %60 = load ptr, ptr %3, align 8
  %61 = getelementptr inbounds %struct.magic_set, ptr %60, i32 0, i32 2
  %62 = getelementptr inbounds %struct.out, ptr %61, i32 0, i32 2
  store ptr %59, ptr %62, align 8
  %63 = load ptr, ptr %3, align 8
  %64 = getelementptr inbounds %struct.magic_set, ptr %63, i32 0, i32 2
  %65 = getelementptr inbounds %struct.out, ptr %64, i32 0, i32 2
  %66 = load ptr, ptr %65, align 8
  store ptr %66, ptr %6, align 8
  %67 = load ptr, ptr %3, align 8
  %68 = getelementptr inbounds %struct.magic_set, ptr %67, i32 0, i32 2
  %69 = getelementptr inbounds %struct.out, ptr %68, i32 0, i32 0
  %70 = load ptr, ptr %69, align 8
  store ptr %70, ptr %5, align 8
  br label %71

71:                                               ; preds = %125, %58
  %72 = load ptr, ptr %5, align 8
  %73 = load i8, ptr %72, align 1
  %74 = icmp ne i8 %73, 0
  br i1 %74, label %75, label %126

75:                                               ; preds = %71
  %76 = call ptr @__ctype_b_loc() #12
  %77 = load ptr, ptr %76, align 8
  %78 = load ptr, ptr %5, align 8
  %79 = load i8, ptr %78, align 1
  %80 = zext i8 %79 to i32
  %81 = sext i32 %80 to i64
  %82 = getelementptr inbounds i16, ptr %77, i64 %81
  %83 = load i16, ptr %82, align 2
  %84 = zext i16 %83 to i32
  %85 = and i32 %84, 16384
  %86 = icmp ne i32 %85, 0
  br i1 %86, label %87, label %93

87:                                               ; preds = %75
  %88 = load ptr, ptr %5, align 8
  %89 = getelementptr inbounds i8, ptr %88, i32 1
  store ptr %89, ptr %5, align 8
  %90 = load i8, ptr %88, align 1
  %91 = load ptr, ptr %6, align 8
  %92 = getelementptr inbounds i8, ptr %91, i32 1
  store ptr %92, ptr %6, align 8
  store i8 %90, ptr %91, align 1
  br label %125

93:                                               ; preds = %75
  %94 = load ptr, ptr %6, align 8
  %95 = getelementptr inbounds i8, ptr %94, i32 1
  store ptr %95, ptr %6, align 8
  store i8 92, ptr %94, align 1
  %96 = load ptr, ptr %5, align 8
  %97 = load i8, ptr %96, align 1
  %98 = sext i8 %97 to i32
  %99 = lshr i32 %98, 6
  %100 = and i32 %99, 3
  %101 = add i32 %100, 48
  %102 = trunc i32 %101 to i8
  %103 = load ptr, ptr %6, align 8
  %104 = getelementptr inbounds i8, ptr %103, i32 1
  store ptr %104, ptr %6, align 8
  store i8 %102, ptr %103, align 1
  %105 = load ptr, ptr %5, align 8
  %106 = load i8, ptr %105, align 1
  %107 = sext i8 %106 to i32
  %108 = lshr i32 %107, 3
  %109 = and i32 %108, 7
  %110 = add i32 %109, 48
  %111 = trunc i32 %110 to i8
  %112 = load ptr, ptr %6, align 8
  %113 = getelementptr inbounds i8, ptr %112, i32 1
  store ptr %113, ptr %6, align 8
  store i8 %111, ptr %112, align 1
  %114 = load ptr, ptr %5, align 8
  %115 = load i8, ptr %114, align 1
  %116 = sext i8 %115 to i32
  %117 = lshr i32 %116, 0
  %118 = and i32 %117, 7
  %119 = add i32 %118, 48
  %120 = trunc i32 %119 to i8
  %121 = load ptr, ptr %6, align 8
  %122 = getelementptr inbounds i8, ptr %121, i32 1
  store ptr %122, ptr %6, align 8
  store i8 %120, ptr %121, align 1
  %123 = load ptr, ptr %5, align 8
  %124 = getelementptr inbounds i8, ptr %123, i32 1
  store ptr %124, ptr %5, align 8
  br label %125

125:                                              ; preds = %93, %87
  br label %71

126:                                              ; preds = %71
  %127 = load ptr, ptr %6, align 8
  store i8 0, ptr %127, align 1
  %128 = load ptr, ptr %3, align 8
  %129 = getelementptr inbounds %struct.magic_set, ptr %128, i32 0, i32 2
  %130 = getelementptr inbounds %struct.out, ptr %129, i32 0, i32 2
  %131 = load ptr, ptr %130, align 8
  store ptr %131, ptr %2, align 8
  br label %132

132:                                              ; preds = %126, %55, %41, %32, %21, %14
  %133 = load ptr, ptr %2, align 8
  ret ptr %133
}