; Function Attrs: nounwind uwtable
define hidden ptr @file_getbuffer(ptr nocapture noundef %0) local_unnamed_addr #2 {
  %2 = getelementptr inbounds i8, ptr %0, i64 72
  %3 = load i32, ptr %2, align 8
  %4 = and i32 %3, 1
  %.not = icmp eq i32 %4, 0
  br i1 %.not, label %5, label %59

5:                                                ; preds = %1
  %6 = getelementptr inbounds i8, ptr %0, i64 68
  %7 = load i32, ptr %6, align 4
  %8 = and i32 %7, 256
  %.not39 = icmp eq i32 %8, 0
  %9 = getelementptr inbounds i8, ptr %0, i64 32
  %10 = load ptr, ptr %9, align 8
  br i1 %.not39, label %11, label %59

11:                                               ; preds = %5
  %12 = icmp eq ptr %10, null
  br i1 %12, label %59, label %13

13:                                               ; preds = %11
  %14 = tail call i64 @strlen(ptr noundef nonnull dereferenceable(1) %10) #20
  %15 = icmp ugt i64 %14, 4611686018427387903
  br i1 %15, label %16, label %19

16:                                               ; preds = %13
  %17 = tail call ptr @__errno_location() #18
  %18 = load i32, ptr %17, align 4
  tail call void (ptr, i32, ptr, ...) @file_error(ptr noundef nonnull %0, i32 noundef %18, ptr noundef nonnull @.str.8, i64 noundef %14)
  br label %59

19:                                               ; preds = %13
  %20 = shl nuw i64 %14, 2
  %21 = or disjoint i64 %20, 1
  %22 = getelementptr inbounds i8, ptr %0, i64 48
  %23 = load ptr, ptr %22, align 8
  %24 = tail call ptr @_erealloc(ptr noundef %23, i64 noundef %21) #21
  %25 = icmp eq ptr %24, null
  br i1 %25, label %26, label %29

26:                                               ; preds = %19
  %27 = tail call ptr @__errno_location() #18
  %28 = load i32, ptr %27, align 4
  tail call void (ptr, i32, ptr, ...) @file_error(ptr noundef nonnull %0, i32 noundef %28, ptr noundef nonnull @.str.8, i64 noundef %21)
  br label %59

29:                                               ; preds = %19
  store ptr %24, ptr %22, align 8
  %30 = load ptr, ptr %9, align 8
  %31 = load i8, ptr %30, align 1
  %.not4042 = icmp eq i8 %31, 0
  br i1 %.not4042, label %._crit_edge, label %.lr.ph

.lr.ph:                                           ; preds = %29
  %32 = tail call ptr @__ctype_b_loc() #18
  br label %33

33:                                               ; preds = %.lr.ph, %56
  %34 = phi i8 [ %31, %.lr.ph ], [ %57, %56 ]
  %.03144 = phi ptr [ %30, %.lr.ph ], [ %.1, %56 ]
  %.03243 = phi ptr [ %24, %.lr.ph ], [ %.133, %56 ]
  %35 = load ptr, ptr %32, align 8
  %36 = zext i8 %34 to i64
  %37 = getelementptr inbounds i16, ptr %35, i64 %36
  %38 = load i16, ptr %37, align 2
  %39 = and i16 %38, 16384
  %.not41 = icmp eq i16 %39, 0
  %40 = getelementptr inbounds i8, ptr %.03243, i64 1
  br i1 %.not41, label %42, label %41

41:                                               ; preds = %33
  store i8 %34, ptr %.03243, align 1
  br label %56

42:                                               ; preds = %33
  store i8 92, ptr %.03243, align 1
  %43 = load i8, ptr %.03144, align 1
  %44 = lshr i8 %43, 6
  %45 = or disjoint i8 %44, 48
  %46 = getelementptr inbounds i8, ptr %.03243, i64 2
  store i8 %45, ptr %40, align 1
  %47 = load i8, ptr %.03144, align 1
  %48 = lshr i8 %47, 3
  %49 = and i8 %48, 7
  %50 = or disjoint i8 %49, 48
  %51 = getelementptr inbounds i8, ptr %.03243, i64 3
  store i8 %50, ptr %46, align 1
  %52 = load i8, ptr %.03144, align 1
  %53 = and i8 %52, 7
  %54 = or disjoint i8 %53, 48
  %55 = getelementptr inbounds i8, ptr %.03243, i64 4
  store i8 %54, ptr %51, align 1
  br label %56

56:                                               ; preds = %42, %41
  %.133 = phi ptr [ %40, %41 ], [ %55, %42 ]
  %.1 = getelementptr inbounds i8, ptr %.03144, i64 1
  %57 = load i8, ptr %.1, align 1
  %.not40 = icmp eq i8 %57, 0
  br i1 %.not40, label %._crit_edge, label %33

._crit_edge:                                      ; preds = %56, %29
  %.032.lcssa = phi ptr [ %24, %29 ], [ %.133, %56 ]
  store i8 0, ptr %.032.lcssa, align 1
  %58 = load ptr, ptr %22, align 8
  br label %59

59:                                               ; preds = %5, %11, %1, %._crit_edge, %26, %16
  %.0 = phi ptr [ null, %16 ], [ null, %26 ], [ %58, %._crit_edge ], [ null, %1 ], [ null, %11 ], [ %10, %5 ]
  ret ptr %.0
}